; Function Attrs: nofree norecurse nosync nounwind memory(argmem: readwrite) uwtable
define dso_local noundef ptr @decNumberCopyAbs(ptr noundef returned captures(address, ret: address, provenance) %0, ptr noundef readonly captures(address) %1) local_unnamed_addr #0 {
  %3 = icmp eq ptr %0, %1
  br i1 %3, label %.decNumberCopy.exit_crit_edge, label %4

.decNumberCopy.exit_crit_edge:                    ; preds = %2
  %.phi.trans.insert = getelementptr inbounds nuw i8, ptr %0, i64 8
  %.pre = load i8, ptr %.phi.trans.insert, align 4, !tbaa !4
  br label %decNumberCopy.exit

4:                                                ; preds = %2
  %5 = getelementptr inbounds nuw i8, ptr %1, i64 8
  %6 = load i8, ptr %5, align 4, !tbaa !4
  %7 = getelementptr inbounds nuw i8, ptr %1, i64 4
  %8 = load i32, ptr %7, align 4, !tbaa !9
  %9 = getelementptr inbounds nuw i8, ptr %0, i64 4
  store i32 %8, ptr %9, align 4, !tbaa !9
  %10 = load i32, ptr %1, align 4, !tbaa !10
  store i32 %10, ptr %0, align 4, !tbaa !10
  %.ptr.i = getelementptr inbounds nuw i8, ptr %1, i64 10
  %11 = load i16, ptr %.ptr.i, align 2, !tbaa !11
  %12 = getelementptr inbounds nuw i8, ptr %0, i64 10
  store i16 %11, ptr %12, align 2, !tbaa !11
  %13 = icmp sgt i32 %10, 3
  br i1 %13, label %14, label %decNumberCopy.exit

14:                                               ; preds = %4
  %15 = getelementptr inbounds nuw i8, ptr %0, i64 12
  %16 = icmp samesign ult i32 %10, 50
  br i1 %16, label %19, label %.thread.i

.thread.i:                                        ; preds = %14
  %17 = add nuw nsw i32 %10, 2
  %18 = udiv i32 %17, 3
  br label %.lr.ph.preheader.i

19:                                               ; preds = %14
  %20 = zext nneg i32 %10 to i64
  %21 = getelementptr inbounds nuw [50 x i8], ptr @d2utable, i64 0, i64 %20
  %22 = load i8, ptr %21, align 1, !tbaa !19
  %23 = zext i8 %22 to i32
  br label %.lr.ph.preheader.i

.lr.ph.preheader.i:                               ; preds = %19, %.thread.i
  %.idx34.pn.in.in.i = phi i32 [ %18, %.thread.i ], [ %23, %19 ]
  %.idx34.pn.in.i = shl nuw nsw i32 %.idx34.pn.in.in.i, 1
  %.idx34.pn.i = zext nneg i32 %.idx34.pn.in.i to i64
  %.pn.i = getelementptr inbounds nuw i8, ptr %1, i64 %.idx34.pn.i
  %.ptr3336.i = getelementptr inbounds nuw i8, ptr %.pn.i, i64 10
  %24 = getelementptr inbounds nuw i8, ptr %1, i64 12
  br label %.lr.ph.i

.lr.ph.i:                                         ; preds = %.lr.ph.i, %.lr.ph.preheader.i
  %.032.i = phi ptr [ %27, %.lr.ph.i ], [ %15, %.lr.ph.preheader.i ]
  %.02631.i = phi ptr [ %26, %.lr.ph.i ], [ %24, %.lr.ph.preheader.i ]
  %25 = load i16, ptr %.02631.i, align 2, !tbaa !11
  store i16 %25, ptr %.032.i, align 2, !tbaa !11
  %26 = getelementptr inbounds nuw i8, ptr %.02631.i, i64 2
  %27 = getelementptr inbounds nuw i8, ptr %.032.i, i64 2
  %28 = icmp ult ptr %26, %.ptr3336.i
  br i1 %28, label %.lr.ph.i, label %decNumberCopy.exit, !llvm.loop !39

decNumberCopy.exit:                               ; preds = %.lr.ph.i, %.decNumberCopy.exit_crit_edge, %4
  %29 = phi i8 [ %.pre, %.decNumberCopy.exit_crit_edge ], [ %6, %4 ], [ %6, %.lr.ph.i ]
  %30 = getelementptr inbounds nuw i8, ptr %0, i64 8
  %31 = and i8 %29, 127
  store i8 %31, ptr %30, align 4, !tbaa !4
  ret ptr %0
}